; Function Attrs: mustprogress uwtable
define hidden noundef i32 @_ZNK22special_relations_util12get_propertyEP9func_decl(ptr nocapture noundef nonnull readnone align 8 dereferenceable(12) %this, ptr nocapture noundef readonly %f) local_unnamed_addr #3 align 2 {
entry:
  %m_info.i = getelementptr inbounds i8, ptr %f, i64 24
  %0 = load ptr, ptr %m_info.i, align 8
  %cmp.i = icmp eq ptr %0, null
  br i1 %cmp.i, label %sw.default, label %_ZNK4decl13get_decl_kindEv.exit

_ZNK4decl13get_decl_kindEv.exit:                  ; preds = %entry
  %m_kind.i.i = getelementptr inbounds i8, ptr %0, i64 4
  %1 = load i32, ptr %m_kind.i.i, align 4
  %2 = icmp ult i32 %1, 6
  br i1 %2, label %switch.lookup, label %sw.default

sw.default:                                       ; preds = %_ZNK4decl13get_decl_kindEv.exit, %entry
  tail call void @_Z26notify_assertion_violationPKciS0_(ptr noundef nonnull @.str.16, i32 noundef 117, ptr noundef nonnull @.str.17)
  tail call void @exit(i32 noundef 114) #14
  unreachable

switch.lookup:                                    ; preds = %_ZNK4decl13get_decl_kindEv.exit
  %3 = zext nneg i32 %1 to i64
  %switch.gep = getelementptr inbounds [6 x i32], ptr @switch.table._ZNK22special_relations_util12get_propertyEP9func_decl, i64 0, i64 %3
  %switch.load = load i32, ptr %switch.gep, align 4
  ret i32 %switch.load
}